target datalayout = "e-m:e-p270:32:32-p271:32:32-p272:64:64-i64:64-i128:128-f80:128-n8:16:32:64-S128"
target triple = "x86_64-pc-linux-gnu"

%struct.EC_builtin_curve = type { i32, ptr }

@.str = private unnamed_addr constant [25 x i8] c"../openssl/test/ectest.c\00", align 1
@curves = internal global ptr null, align 8
@.str.262 = private unnamed_addr constant [35 x i8] c"G = EC_GROUP_get0_generator(group)\00", align 1
@.str.430 = private unnamed_addr constant [40 x i8] c"group = EC_GROUP_new_by_curve_name(nid)\00", align 1
@.str.522 = private unnamed_addr constant [21 x i8] c"bnctx = BN_CTX_new()\00", align 1
@.str.523 = private unnamed_addr constant [27 x i8] c"P = EC_POINT_dup(G, group)\00", align 1
@.str.524 = private unnamed_addr constant [77 x i8] c"ec_point_hex2point_test_helper(group, P, POINT_CONVERSION_COMPRESSED, bnctx)\00", align 1
@.str.525 = private unnamed_addr constant [80 x i8] c"ec_point_hex2point_test_helper(group, NULL, POINT_CONVERSION_COMPRESSED, bnctx)\00", align 1
@.str.526 = private unnamed_addr constant [79 x i8] c"ec_point_hex2point_test_helper(group, P, POINT_CONVERSION_UNCOMPRESSED, bnctx)\00", align 1
@.str.527 = private unnamed_addr constant [82 x i8] c"ec_point_hex2point_test_helper(group, NULL, POINT_CONVERSION_UNCOMPRESSED, bnctx)\00", align 1
@.str.528 = private unnamed_addr constant [73 x i8] c"ec_point_hex2point_test_helper(group, P, POINT_CONVERSION_HYBRID, bnctx)\00", align 1
@.str.529 = private unnamed_addr constant [76 x i8] c"ec_point_hex2point_test_helper(group, NULL, POINT_CONVERSION_HYBRID, bnctx)\00", align 1

; Function Attrs: nounwind uwtable
define internal i32 @ec_point_hex2point_test(i32 noundef %0) #0 {
  %2 = alloca i32, align 4
  %3 = alloca i32, align 4
  %4 = alloca i32, align 4
  %5 = alloca ptr, align 8
  %6 = alloca ptr, align 8
  %7 = alloca ptr, align 8
  %8 = alloca ptr, align 8
  store i32 %0, ptr %2, align 4, !tbaa !16
  call void @llvm.lifetime.start.p0(i64 4, ptr %3) #7
  store i32 0, ptr %3, align 4, !tbaa !16
  call void @llvm.lifetime.start.p0(i64 4, ptr %4) #7
  call void @llvm.lifetime.start.p0(i64 8, ptr %5) #7
  store ptr null, ptr %5, align 8, !tbaa !10
  call void @llvm.lifetime.start.p0(i64 8, ptr %6) #7
  store ptr null, ptr %6, align 8, !tbaa !24
  call void @llvm.lifetime.start.p0(i64 8, ptr %7) #7
  store ptr null, ptr %7, align 8, !tbaa !24
  call void @llvm.lifetime.start.p0(i64 8, ptr %8) #7
  store ptr null, ptr %8, align 8, !tbaa !20
  %9 = load ptr, ptr @curves, align 8, !tbaa !8
  %10 = load i32, ptr %2, align 4, !tbaa !16
  %11 = sext i32 %10 to i64
  %12 = getelementptr inbounds %struct.EC_builtin_curve, ptr %9, i64 %11
  %13 = getelementptr inbounds nuw %struct.EC_builtin_curve, ptr %12, i32 0, i32 0
  %14 = load i32, ptr %13, align 8, !tbaa !28
  store i32 %14, ptr %4, align 4, !tbaa !16
  %15 = call ptr @BN_CTX_new()
  store ptr %15, ptr %8, align 8, !tbaa !20
  %16 = call i32 @test_ptr(ptr noundef @.str, i32 noundef 2464, ptr noundef @.str.522, ptr noundef %15)
  %17 = icmp ne i32 %16, 0
  br i1 %17, label %18, label %34

18:                                               ; preds = %1
  %19 = load i32, ptr %4, align 4, !tbaa !16
  %20 = call ptr @EC_GROUP_new_by_curve_name(i32 noundef %19)
  store ptr %20, ptr %5, align 8, !tbaa !10
  %21 = call i32 @test_ptr(ptr noundef @.str, i32 noundef 2465, ptr noundef @.str.430, ptr noundef %20)
  %22 = icmp ne i32 %21, 0
  br i1 %22, label %23, label %34

23:                                               ; preds = %18
  %24 = load ptr, ptr %5, align 8, !tbaa !10
  %25 = call ptr @EC_GROUP_get0_generator(ptr noundef %24)
  store ptr %25, ptr %6, align 8, !tbaa !24
  %26 = call i32 @test_ptr(ptr noundef @.str, i32 noundef 2466, ptr noundef @.str.262, ptr noundef %25)
  %27 = icmp ne i32 %26, 0
  br i1 %27, label %28, label %34

28:                                               ; preds = %23
  %29 = load ptr, ptr %6, align 8, !tbaa !24
  %30 = load ptr, ptr %5, align 8, !tbaa !10
  %31 = call ptr @EC_POINT_dup(ptr noundef %29, ptr noundef %30)
  store ptr %31, ptr %7, align 8, !tbaa !24
  %32 = call i32 @test_ptr(ptr noundef @.str, i32 noundef 2467, ptr noundef @.str.523, ptr noundef %31)
  %33 = icmp ne i32 %32, 0
  br i1 %33, label %35, label %34

34:                                               ; preds = %28, %23, %18, %1
  br label %88

35:                                               ; preds = %28
  %36 = load ptr, ptr %5, align 8, !tbaa !10
  %37 = load ptr, ptr %7, align 8, !tbaa !24
  %38 = load ptr, ptr %8, align 8, !tbaa !20
  %39 = call i32 @ec_point_hex2point_test_helper(ptr noundef %36, ptr noundef %37, i32 noundef 2, ptr noundef %38)
  %40 = icmp ne i32 %39, 0
  %41 = zext i1 %40 to i32
  %42 = call i32 @test_true(ptr noundef @.str, i32 noundef 2472, ptr noundef @.str.524, i32 noundef %41)
  %43 = icmp ne i32 %42, 0
  br i1 %43, label %44, label %86

44:                                               ; preds = %35
  %45 = load ptr, ptr %5, align 8, !tbaa !10
  %46 = load ptr, ptr %8, align 8, !tbaa !20
  %47 = call i32 @ec_point_hex2point_test_helper(ptr noundef %45, ptr noundef null, i32 noundef 2, ptr noundef %46)
  %48 = icmp ne i32 %47, 0
  %49 = zext i1 %48 to i32
  %50 = call i32 @test_true(ptr noundef @.str, i32 noundef 2475, ptr noundef @.str.525, i32 noundef %49)
  %51 = icmp ne i32 %50, 0
  br i1 %51, label %52, label %86

52:                                               ; preds = %44
  %53 = load ptr, ptr %5, align 8, !tbaa !10
  %54 = load ptr, ptr %7, align 8, !tbaa !24
  %55 = load ptr, ptr %8, align 8, !tbaa !20
  %56 = call i32 @ec_point_hex2point_test_helper(ptr noundef %53, ptr noundef %54, i32 noundef 4, ptr noundef %55)
  %57 = icmp ne i32 %56, 0
  %58 = zext i1 %57 to i32
  %59 = call i32 @test_true(ptr noundef @.str, i32 noundef 2478, ptr noundef @.str.526, i32 noundef %58)
  %60 = icmp ne i32 %59, 0
  br i1 %60, label %61, label %86

61:                                               ; preds = %52
  %62 = load ptr, ptr %5, align 8, !tbaa !10
  %63 = load ptr, ptr %8, align 8, !tbaa !20
  %64 = call i32 @ec_point_hex2point_test_helper(ptr noundef %62, ptr noundef null, i32 noundef 4, ptr noundef %63)
  %65 = icmp ne i32 %64, 0
  %66 = zext i1 %65 to i32
  %67 = call i32 @test_true(ptr noundef @.str, i32 noundef 2481, ptr noundef @.str.527, i32 noundef %66)
  %68 = icmp ne i32 %67, 0
  br i1 %68, label %69, label %86

69:                                               ; preds = %61
  %70 = load ptr, ptr %5, align 8, !tbaa !10
  %71 = load ptr, ptr %7, align 8, !tbaa !24
  %72 = load ptr, ptr %8, align 8, !tbaa !20
  %73 = call i32 @ec_point_hex2point_test_helper(ptr noundef %70, ptr noundef %71, i32 noundef 6, ptr noundef %72)
  %74 = icmp ne i32 %73, 0
  %75 = zext i1 %74 to i32
  %76 = call i32 @test_true(ptr noundef @.str, i32 noundef 2484, ptr noundef @.str.528, i32 noundef %75)
  %77 = icmp ne i32 %76, 0
  br i1 %77, label %78, label %86

78:                                               ; preds = %69
  %79 = load ptr, ptr %5, align 8, !tbaa !10
  %80 = load ptr, ptr %8, align 8, !tbaa !20
  %81 = call i32 @ec_point_hex2point_test_helper(ptr noundef %79, ptr noundef null, i32 noundef 6, ptr noundef %80)
  %82 = icmp ne i32 %81, 0
  %83 = zext i1 %82 to i32
  %84 = call i32 @test_true(ptr noundef @.str, i32 noundef 2487, ptr noundef @.str.529, i32 noundef %83)
  %85 = icmp ne i32 %84, 0
  br i1 %85, label %87, label %86

86:                                               ; preds = %78, %69, %61, %52, %44, %35
  br label %88

87:                                               ; preds = %78
  store i32 1, ptr %3, align 4, !tbaa !16
  br label %88

88:                                               ; preds = %87, %86, %34
  %89 = load ptr, ptr %7, align 8, !tbaa !24
  call void @EC_POINT_free(ptr noundef %89)
  %90 = load ptr, ptr %5, align 8, !tbaa !10
  call void @EC_GROUP_free(ptr noundef %90)
  %91 = load ptr, ptr %8, align 8, !tbaa !20
  call void @BN_CTX_free(ptr noundef %91)
  %92 = load i32, ptr %3, align 4, !tbaa !16
  call void @llvm.lifetime.end.p0(i64 8, ptr %8) #7
  call void @llvm.lifetime.end.p0(i64 8, ptr %7) #7
  call void @llvm.lifetime.end.p0(i64 8, ptr %6) #7
  call void @llvm.lifetime.end.p0(i64 8, ptr %5) #7
  call void @llvm.lifetime.end.p0(i64 4, ptr %4) #7
  call void @llvm.lifetime.end.p0(i64 4, ptr %3) #7
  ret i32 %92
}