; Function Attrs: nounwind uwtable
define internal range(i32 0, 2) i32 @ec_point_hex2point_test(i32 noundef %0) #0 {
  %2 = load ptr, ptr @curves, align 8, !tbaa !8
  %3 = sext i32 %0 to i64
  %4 = getelementptr inbounds %struct.EC_builtin_curve, ptr %2, i64 %3
  %5 = load i32, ptr %4, align 8, !tbaa !16
  %6 = tail call ptr @BN_CTX_new() #7
  %7 = tail call i32 @test_ptr(ptr noundef nonnull @.str, i32 noundef 2464, ptr noundef nonnull @.str.522, ptr noundef %6) #7
  %.not = icmp eq i32 %7, 0
  br i1 %.not, label %35, label %8

8:                                                ; preds = %1
  %9 = tail call ptr @EC_GROUP_new_by_curve_name(i32 noundef %5) #7
  %10 = tail call i32 @test_ptr(ptr noundef nonnull @.str, i32 noundef 2465, ptr noundef nonnull @.str.430, ptr noundef %9) #7
  %.not25 = icmp eq i32 %10, 0
  br i1 %.not25, label %35, label %11

11:                                               ; preds = %8
  %12 = tail call ptr @EC_GROUP_get0_generator(ptr noundef %9) #7
  %13 = tail call i32 @test_ptr(ptr noundef nonnull @.str, i32 noundef 2466, ptr noundef nonnull @.str.262, ptr noundef %12) #7
  %.not26 = icmp eq i32 %13, 0
  br i1 %.not26, label %35, label %14

14:                                               ; preds = %11
  %15 = tail call ptr @EC_POINT_dup(ptr noundef %12, ptr noundef %9) #7
  %16 = tail call i32 @test_ptr(ptr noundef nonnull @.str, i32 noundef 2467, ptr noundef nonnull @.str.523, ptr noundef %15) #7
  %.not27 = icmp eq i32 %16, 0
  br i1 %.not27, label %35, label %17

17:                                               ; preds = %14
  %18 = tail call fastcc i32 @ec_point_hex2point_test_helper(ptr noundef %9, ptr noundef %15, i32 noundef 2, ptr noundef %6)
  %19 = tail call i32 @test_true(ptr noundef nonnull @.str, i32 noundef 2472, ptr noundef nonnull @.str.524, i32 noundef %18) #7
  %.not28 = icmp eq i32 %19, 0
  br i1 %.not28, label %35, label %20

20:                                               ; preds = %17
  %21 = tail call fastcc i32 @ec_point_hex2point_test_helper(ptr noundef %9, ptr noundef null, i32 noundef 2, ptr noundef %6)
  %22 = tail call i32 @test_true(ptr noundef nonnull @.str, i32 noundef 2475, ptr noundef nonnull @.str.525, i32 noundef %21) #7
  %.not29 = icmp eq i32 %22, 0
  br i1 %.not29, label %35, label %23

23:                                               ; preds = %20
  %24 = tail call fastcc i32 @ec_point_hex2point_test_helper(ptr noundef %9, ptr noundef %15, i32 noundef 4, ptr noundef %6)
  %25 = tail call i32 @test_true(ptr noundef nonnull @.str, i32 noundef 2478, ptr noundef nonnull @.str.526, i32 noundef %24) #7
  %.not30 = icmp eq i32 %25, 0
  br i1 %.not30, label %35, label %26

26:                                               ; preds = %23
  %27 = tail call fastcc i32 @ec_point_hex2point_test_helper(ptr noundef %9, ptr noundef null, i32 noundef 4, ptr noundef %6)
  %28 = tail call i32 @test_true(ptr noundef nonnull @.str, i32 noundef 2481, ptr noundef nonnull @.str.527, i32 noundef %27) #7
  %.not31 = icmp eq i32 %28, 0
  br i1 %.not31, label %35, label %29

29:                                               ; preds = %26
  %30 = tail call fastcc i32 @ec_point_hex2point_test_helper(ptr noundef %9, ptr noundef %15, i32 noundef 6, ptr noundef %6)
  %31 = tail call i32 @test_true(ptr noundef nonnull @.str, i32 noundef 2484, ptr noundef nonnull @.str.528, i32 noundef %30) #7
  %.not32 = icmp eq i32 %31, 0
  br i1 %.not32, label %35, label %32

32:                                               ; preds = %29
  %33 = tail call fastcc i32 @ec_point_hex2point_test_helper(ptr noundef %9, ptr noundef null, i32 noundef 6, ptr noundef %6)
  %34 = tail call i32 @test_true(ptr noundef nonnull @.str, i32 noundef 2487, ptr noundef nonnull @.str.529, i32 noundef %33) #7
  %.not33 = icmp ne i32 %34, 0
  %spec.select = zext i1 %.not33 to i32
  br label %35

35:                                               ; preds = %32, %17, %20, %23, %26, %29, %1, %8, %11, %14
  %.024 = phi i32 [ 0, %29 ], [ 0, %26 ], [ 0, %23 ], [ 0, %20 ], [ 0, %17 ], [ 0, %14 ], [ 0, %11 ], [ 0, %8 ], [ 0, %1 ], [ %spec.select, %32 ]
  %.023 = phi ptr [ %9, %29 ], [ %9, %26 ], [ %9, %23 ], [ %9, %20 ], [ %9, %17 ], [ %9, %14 ], [ %9, %11 ], [ %9, %8 ], [ null, %1 ], [ %9, %32 ]
  %.0 = phi ptr [ %15, %29 ], [ %15, %26 ], [ %15, %23 ], [ %15, %20 ], [ %15, %17 ], [ %15, %14 ], [ null, %11 ], [ null, %8 ], [ null, %1 ], [ %15, %32 ]
  tail call void @EC_POINT_free(ptr noundef %.0) #7
  tail call void @EC_GROUP_free(ptr noundef %.023) #7
  tail call void @BN_CTX_free(ptr noundef %6) #7
  ret i32 %.024
}